target datalayout = "e-m:e-p270:32:32-p271:32:32-p272:64:64-i64:64-i128:128-f80:128-n8:16:32:64-S128"
target triple = "x86_64-pc-linux-gnu"

%struct.cli_bm_patt = type { ptr, ptr, ptr, [4 x i32], i32, i32, ptr, i16, i16, i16, i8, i32, i32 }
%struct.cli_matcher = type { i32, ptr, ptr, ptr, ptr, i32, i32, i32, i32, i32, %struct.cli_hash_patt, %struct.cli_hash_wild, i32, i32, i32, i32, i32, ptr, ptr, ptr, ptr, ptr, ptr, i32, i32, i8, i8, ptr, i16, i8, i32, ptr, i32, i32, i32, ptr, ptr, i32, ptr, i64, i64, ptr }
%struct.cli_hash_patt = type { [3 x %struct.cli_htu32] }
%struct.cli_htu32 = type { ptr, i64, i64, i64 }
%struct.cli_hash_wild = type { [3 x %struct.cli_sz_hash] }
%struct.cli_sz_hash = type { ptr, ptr, i32 }

; Function Attrs: nounwind uwtable
define void @cli_bm_free(ptr noundef %0) #0 {
  %2 = alloca ptr, align 8
  %3 = alloca ptr, align 8
  %4 = alloca ptr, align 8
  %5 = alloca i16, align 2
  %6 = alloca i16, align 2
  store ptr %0, ptr %2, align 8
  store i16 -2040, ptr %6, align 2
  %7 = load ptr, ptr %2, align 8
  %8 = getelementptr inbounds %struct.cli_matcher, ptr %7, i32 0, i32 1
  %9 = load ptr, ptr %8, align 8
  %10 = icmp ne ptr %9, null
  br i1 %10, label %11, label %18

11:                                               ; preds = %1
  %12 = load ptr, ptr %2, align 8
  %13 = getelementptr inbounds %struct.cli_matcher, ptr %12, i32 0, i32 41
  %14 = load ptr, ptr %13, align 8
  %15 = load ptr, ptr %2, align 8
  %16 = getelementptr inbounds %struct.cli_matcher, ptr %15, i32 0, i32 1
  %17 = load ptr, ptr %16, align 8
  call void @mpool_free(ptr noundef %14, ptr noundef %17)
  br label %18

18:                                               ; preds = %11, %1
  %19 = load ptr, ptr %2, align 8
  %20 = getelementptr inbounds %struct.cli_matcher, ptr %19, i32 0, i32 3
  %21 = load ptr, ptr %20, align 8
  %22 = icmp ne ptr %21, null
  br i1 %22, label %23, label %30

23:                                               ; preds = %18
  %24 = load ptr, ptr %2, align 8
  %25 = getelementptr inbounds %struct.cli_matcher, ptr %24, i32 0, i32 41
  %26 = load ptr, ptr %25, align 8
  %27 = load ptr, ptr %2, align 8
  %28 = getelementptr inbounds %struct.cli_matcher, ptr %27, i32 0, i32 3
  %29 = load ptr, ptr %28, align 8
  call void @mpool_free(ptr noundef %26, ptr noundef %29)
  br label %30

30:                                               ; preds = %23, %18
  %31 = load ptr, ptr %2, align 8
  %32 = getelementptr inbounds %struct.cli_matcher, ptr %31, i32 0, i32 2
  %33 = load ptr, ptr %32, align 8
  %34 = icmp ne ptr %33, null
  br i1 %34, label %35, label %104

35:                                               ; preds = %30
  store i16 0, ptr %5, align 2
  br label %36

36:                                               ; preds = %94, %35
  %37 = load i16, ptr %5, align 2
  %38 = zext i16 %37 to i32
  %39 = load i16, ptr %6, align 2
  %40 = zext i16 %39 to i32
  %41 = icmp slt i32 %38, %40
  br i1 %41, label %42, label %97

42:                                               ; preds = %36
  %43 = load ptr, ptr %2, align 8
  %44 = getelementptr inbounds %struct.cli_matcher, ptr %43, i32 0, i32 2
  %45 = load ptr, ptr %44, align 8
  %46 = load i16, ptr %5, align 2
  %47 = zext i16 %46 to i64
  %48 = getelementptr inbounds ptr, ptr %45, i64 %47
  %49 = load ptr, ptr %48, align 8
  store ptr %49, ptr %3, align 8
  br label %50

50:                                               ; preds = %88, %42
  %51 = load ptr, ptr %3, align 8
  %52 = icmp ne ptr %51, null
  br i1 %52, label %53, label %93

53:                                               ; preds = %50
  %54 = load ptr, ptr %3, align 8
  store ptr %54, ptr %4, align 8
  %55 = load ptr, ptr %3, align 8
  %56 = getelementptr inbounds %struct.cli_bm_patt, ptr %55, i32 0, i32 6
  %57 = load ptr, ptr %56, align 8
  store ptr %57, ptr %3, align 8
  %58 = load ptr, ptr %4, align 8
  %59 = getelementptr inbounds %struct.cli_bm_patt, ptr %58, i32 0, i32 1
  %60 = load ptr, ptr %59, align 8
  %61 = icmp ne ptr %60, null
  br i1 %61, label %62, label %69

62:                                               ; preds = %53
  %63 = load ptr, ptr %2, align 8
  %64 = getelementptr inbounds %struct.cli_matcher, ptr %63, i32 0, i32 41
  %65 = load ptr, ptr %64, align 8
  %66 = load ptr, ptr %4, align 8
  %67 = getelementptr inbounds %struct.cli_bm_patt, ptr %66, i32 0, i32 1
  %68 = load ptr, ptr %67, align 8
  call void @mpool_free(ptr noundef %65, ptr noundef %68)
  br label %76

69:                                               ; preds = %53
  %70 = load ptr, ptr %2, align 8
  %71 = getelementptr inbounds %struct.cli_matcher, ptr %70, i32 0, i32 41
  %72 = load ptr, ptr %71, align 8
  %73 = load ptr, ptr %4, align 8
  %74 = getelementptr inbounds %struct.cli_bm_patt, ptr %73, i32 0, i32 0
  %75 = load ptr, ptr %74, align 8
  call void @mpool_free(ptr noundef %72, ptr noundef %75)
  br label %76

76:                                               ; preds = %69, %62
  %77 = load ptr, ptr %4, align 8
  %78 = getelementptr inbounds %struct.cli_bm_patt, ptr %77, i32 0, i32 2
  %79 = load ptr, ptr %78, align 8
  %80 = icmp ne ptr %79, null
  br i1 %80, label %81, label %88

81:                                               ; preds = %76
  %82 = load ptr, ptr %2, align 8
  %83 = getelementptr inbounds %struct.cli_matcher, ptr %82, i32 0, i32 41
  %84 = load ptr, ptr %83, align 8
  %85 = load ptr, ptr %4, align 8
  %86 = getelementptr inbounds %struct.cli_bm_patt, ptr %85, i32 0, i32 2
  %87 = load ptr, ptr %86, align 8
  call void @mpool_free(ptr noundef %84, ptr noundef %87)
  br label %88

88:                                               ; preds = %81, %76
  %89 = load ptr, ptr %2, align 8
  %90 = getelementptr inbounds %struct.cli_matcher, ptr %89, i32 0, i32 41
  %91 = load ptr, ptr %90, align 8
  %92 = load ptr, ptr %4, align 8
  call void @mpool_free(ptr noundef %91, ptr noundef %92)
  br label %50

93:                                               ; preds = %50
  br label %94

94:                                               ; preds = %93
  %95 = load i16, ptr %5, align 2
  %96 = add i16 %95, 1
  store i16 %96, ptr %5, align 2
  br label %36

97:                                               ; preds = %36
  %98 = load ptr, ptr %2, align 8
  %99 = getelementptr inbounds %struct.cli_matcher, ptr %98, i32 0, i32 41
  %100 = load ptr, ptr %99, align 8
  %101 = load ptr, ptr %2, align 8
  %102 = getelementptr inbounds %struct.cli_matcher, ptr %101, i32 0, i32 2
  %103 = load ptr, ptr %102, align 8
  call void @mpool_free(ptr noundef %100, ptr noundef %103)
  br label %104

104:                                              ; preds = %97, %30
  ret void
}