; Function Attrs: nounwind uwtable
define void @cli_bm_free(ptr nocapture noundef readonly %0) local_unnamed_addr #0 {
  %2 = getelementptr inbounds i8, ptr %0, i64 8
  %3 = load ptr, ptr %2, align 8
  %.not = icmp eq ptr %3, null
  br i1 %.not, label %7, label %4

4:                                                ; preds = %1
  %5 = getelementptr inbounds i8, ptr %0, i64 408
  %6 = load ptr, ptr %5, align 8
  tail call void @mpool_free(ptr noundef %6, ptr noundef nonnull %3) #8
  br label %7

7:                                                ; preds = %4, %1
  %8 = getelementptr inbounds i8, ptr %0, i64 24
  %9 = load ptr, ptr %8, align 8
  %.not31 = icmp eq ptr %9, null
  br i1 %.not31, label %13, label %10

10:                                               ; preds = %7
  %11 = getelementptr inbounds i8, ptr %0, i64 408
  %12 = load ptr, ptr %11, align 8
  tail call void @mpool_free(ptr noundef %12, ptr noundef nonnull %9) #8
  br label %13

13:                                               ; preds = %10, %7
  %14 = getelementptr inbounds i8, ptr %0, i64 16
  %15 = load ptr, ptr %14, align 8
  %.not32 = icmp eq ptr %15, null
  br i1 %.not32, label %39, label %.preheader

.preheader:                                       ; preds = %13
  %16 = getelementptr inbounds i8, ptr %0, i64 408
  br label %17

17:                                               ; preds = %.preheader, %._crit_edge
  %indvars.iv = phi i64 [ 0, %.preheader ], [ %indvars.iv.next, %._crit_edge ]
  %18 = load ptr, ptr %14, align 8
  %19 = getelementptr inbounds ptr, ptr %18, i64 %indvars.iv
  %20 = load ptr, ptr %19, align 8
  %.not3336 = icmp eq ptr %20, null
  br i1 %.not3336, label %._crit_edge, label %.lr.ph

.lr.ph:                                           ; preds = %17, %34
  %.037 = phi ptr [ %22, %34 ], [ %20, %17 ]
  %21 = getelementptr inbounds i8, ptr %.037, i64 48
  %22 = load ptr, ptr %21, align 8
  %23 = getelementptr inbounds i8, ptr %.037, i64 8
  %24 = load ptr, ptr %23, align 8
  %.not34 = icmp eq ptr %24, null
  %25 = load ptr, ptr %16, align 8
  br i1 %.not34, label %27, label %26

26:                                               ; preds = %.lr.ph
  tail call void @mpool_free(ptr noundef %25, ptr noundef nonnull %24) #8
  br label %29

27:                                               ; preds = %.lr.ph
  %28 = load ptr, ptr %.037, align 8
  tail call void @mpool_free(ptr noundef %25, ptr noundef %28) #8
  br label %29

29:                                               ; preds = %27, %26
  %30 = getelementptr inbounds i8, ptr %.037, i64 16
  %31 = load ptr, ptr %30, align 8
  %.not35 = icmp eq ptr %31, null
  br i1 %.not35, label %34, label %32

32:                                               ; preds = %29
  %33 = load ptr, ptr %16, align 8
  tail call void @mpool_free(ptr noundef %33, ptr noundef nonnull %31) #8
  br label %34

34:                                               ; preds = %32, %29
  %35 = load ptr, ptr %16, align 8
  tail call void @mpool_free(ptr noundef %35, ptr noundef nonnull %.037) #8
  %.not33 = icmp eq ptr %22, null
  br i1 %.not33, label %._crit_edge, label %.lr.ph

._crit_edge:                                      ; preds = %34, %17
  %indvars.iv.next = add nuw nsw i64 %indvars.iv, 1
  %exitcond.not = icmp eq i64 %indvars.iv.next, 63496
  br i1 %exitcond.not, label %36, label %17

36:                                               ; preds = %._crit_edge
  %37 = load ptr, ptr %16, align 8
  %38 = load ptr, ptr %14, align 8
  tail call void @mpool_free(ptr noundef %37, ptr noundef %38) #8
  br label %39

39:                                               ; preds = %36, %13
  ret void
}